; Function Attrs: nounwind uwtable
define ptr @l_Subarray_forInUnsafe_loop___at___private_Lean_Meta_Injective_0__Lean_Meta_mkAnd_x3f___spec__1___boxed(ptr noundef %0, ptr noundef %1, ptr noundef %2, ptr noundef %3) local_unnamed_addr #0 {
  %5 = getelementptr i8, ptr %1, i64 8
  %.val = load i64, ptr %5, align 8, !tbaa !12
  %6 = ptrtoint ptr %1 to i64
  %7 = and i64 %6, 1
  %.not = icmp eq i64 %7, 0
  br i1 %.not, label %8, label %lean_dec.exit10

8:                                                ; preds = %4
  %9 = load i32, ptr %1, align 4, !tbaa !8
  %10 = icmp sgt i32 %9, 1
  br i1 %10, label %11, label %13, !prof !11

11:                                               ; preds = %8
  %12 = add nsw i32 %9, -1
  store i32 %12, ptr %1, align 4, !tbaa !8
  br label %lean_dec.exit10

13:                                               ; preds = %8
  %.not.i = icmp eq i32 %9, 0
  br i1 %.not.i, label %lean_dec.exit10, label %14

14:                                               ; preds = %13
  tail call void @lean_dec_ref_cold(ptr noundef nonnull %1) #5
  br label %lean_dec.exit10

lean_dec.exit10:                                  ; preds = %14, %13, %11, %4
  %15 = getelementptr i8, ptr %2, i64 8
  %.val15 = load i64, ptr %15, align 8, !tbaa !12
  %16 = ptrtoint ptr %2 to i64
  %17 = and i64 %16, 1
  %.not16 = icmp eq i64 %17, 0
  br i1 %.not16, label %18, label %lean_dec.exit9

18:                                               ; preds = %lean_dec.exit10
  %19 = load i32, ptr %2, align 4, !tbaa !8
  %20 = icmp sgt i32 %19, 1
  br i1 %20, label %21, label %23, !prof !11

21:                                               ; preds = %18
  %22 = add nsw i32 %19, -1
  store i32 %22, ptr %2, align 4, !tbaa !8
  br label %lean_dec.exit9

23:                                               ; preds = %18
  %.not.i11 = icmp eq i32 %19, 0
  br i1 %.not.i11, label %lean_dec.exit9, label %24

24:                                               ; preds = %23
  tail call void @lean_dec_ref_cold(ptr noundef nonnull %2) #5
  br label %lean_dec.exit9

lean_dec.exit9:                                   ; preds = %24, %23, %21, %lean_dec.exit10
  %.not27.i = icmp ult i64 %.val15, %.val
  br i1 %.not27.i, label %.lr.ph.i, label %l_Subarray_forInUnsafe_loop___at___private_Lean_Meta_Injective_0__Lean_Meta_mkAnd_x3f___spec__1.exit

.lr.ph.i:                                         ; preds = %lean_dec.exit9
  %25 = getelementptr inbounds nuw i8, ptr %0, i64 8
  br label %26

26:                                               ; preds = %39, %.lr.ph.i
  %.01529.i = phi i64 [ %.val15, %.lr.ph.i ], [ %42, %39 ]
  %.01728.i = phi ptr [ %3, %.lr.ph.i ], [ %41, %39 ]
  %27 = load ptr, ptr %25, align 8, !tbaa !4
  %28 = getelementptr inbounds nuw i8, ptr %27, i64 24
  %29 = getelementptr inbounds nuw [0 x ptr], ptr %28, i64 0, i64 %.01529.i
  %30 = load ptr, ptr %29, align 8, !tbaa !4
  %31 = ptrtoint ptr %30 to i64
  %32 = and i64 %31, 1
  %.not.i.i = icmp eq i64 %32, 0
  br i1 %.not.i.i, label %33, label %39

33:                                               ; preds = %26
  %.val.i.i.i = load i32, ptr %30, align 4, !tbaa !8
  %34 = icmp sgt i32 %.val.i.i.i, 0
  br i1 %34, label %35, label %37, !prof !11

35:                                               ; preds = %33
  %36 = add nuw i32 %.val.i.i.i, 1
  store i32 %36, ptr %30, align 4, !tbaa !8
  br label %39

37:                                               ; preds = %33
  %.not.i.i.i = icmp eq i32 %.val.i.i.i, 0
  br i1 %.not.i.i.i, label %39, label %38

38:                                               ; preds = %37
  tail call void @lean_inc_ref_cold(ptr noundef nonnull %30) #5
  br label %39

39:                                               ; preds = %38, %37, %35, %26
  %40 = load ptr, ptr @l_Subarray_forInUnsafe_loop___at___private_Lean_Meta_Injective_0__Lean_Meta_mkAnd_x3f___spec__1___closed__3, align 8, !tbaa !4
  %41 = tail call ptr @l_Lean_mkAppB(ptr noundef %40, ptr noundef %30, ptr noundef %.01728.i) #5
  %42 = add nuw i64 %.01529.i, 1
  %exitcond.not.i = icmp eq i64 %42, %.val
  br i1 %exitcond.not.i, label %l_Subarray_forInUnsafe_loop___at___private_Lean_Meta_Injective_0__Lean_Meta_mkAnd_x3f___spec__1.exit, label %26

l_Subarray_forInUnsafe_loop___at___private_Lean_Meta_Injective_0__Lean_Meta_mkAnd_x3f___spec__1.exit: ; preds = %39, %lean_dec.exit9
  %.017.lcssa.i = phi ptr [ %3, %lean_dec.exit9 ], [ %41, %39 ]
  %43 = ptrtoint ptr %0 to i64
  %44 = and i64 %43, 1
  %.not17 = icmp eq i64 %44, 0
  br i1 %.not17, label %45, label %lean_dec.exit

45:                                               ; preds = %l_Subarray_forInUnsafe_loop___at___private_Lean_Meta_Injective_0__Lean_Meta_mkAnd_x3f___spec__1.exit
  %46 = load i32, ptr %0, align 4, !tbaa !8
  %47 = icmp sgt i32 %46, 1
  br i1 %47, label %48, label %50, !prof !11

48:                                               ; preds = %45
  %49 = add nsw i32 %46, -1
  store i32 %49, ptr %0, align 4, !tbaa !8
  br label %lean_dec.exit

50:                                               ; preds = %45
  %.not.i13 = icmp eq i32 %46, 0
  br i1 %.not.i13, label %lean_dec.exit, label %51

51:                                               ; preds = %50
  tail call void @lean_dec_ref_cold(ptr noundef nonnull %0) #5
  br label %lean_dec.exit

lean_dec.exit:                                    ; preds = %51, %50, %48, %l_Subarray_forInUnsafe_loop___at___private_Lean_Meta_Injective_0__Lean_Meta_mkAnd_x3f___spec__1.exit
  ret ptr %.017.lcssa.i
}